target datalayout = "e-m:e-p270:32:32-p271:32:32-p272:64:64-i64:64-i128:128-f80:128-n8:16:32:64-S128"
target triple = "x86_64-pc-linux-gnu"

%struct.spawn_resp = type { i32, i32, ptr, i16, i32, ptr }

; Function Attrs: nounwind uwtable
define dso_local void @spawn_resp_pack(ptr noundef %0, ptr noundef %1) #0 {
  %3 = alloca ptr, align 8
  %4 = alloca ptr, align 8
  %5 = alloca i32, align 4
  %6 = alloca i32, align 4
  store ptr %0, ptr %3, align 8
  store ptr %1, ptr %4, align 8
  call void @llvm.lifetime.start.p0(i64 4, ptr %5) #7
  %7 = load ptr, ptr %3, align 8
  %8 = getelementptr inbounds nuw %struct.spawn_resp, ptr %7, i32 0, i32 0
  %9 = load i32, ptr %8, align 8
  %10 = load ptr, ptr %4, align 8
  call void @slurm_pack32(i32 noundef %9, ptr noundef %10)
  %11 = load ptr, ptr %3, align 8
  %12 = getelementptr inbounds nuw %struct.spawn_resp, ptr %11, i32 0, i32 1
  %13 = load i32, ptr %12, align 4
  %14 = load ptr, ptr %4, align 8
  call void @slurm_pack32(i32 noundef %13, ptr noundef %14)
  %15 = load ptr, ptr %3, align 8
  %16 = getelementptr inbounds nuw %struct.spawn_resp, ptr %15, i32 0, i32 3
  %17 = load i16, ptr %16, align 8
  %18 = load ptr, ptr %4, align 8
  call void @slurm_pack16(i16 noundef zeroext %17, ptr noundef %18)
  br label %19

19:                                               ; preds = %2
  call void @llvm.lifetime.start.p0(i64 4, ptr %6) #7
  store i32 0, ptr %6, align 4
  %20 = load ptr, ptr %3, align 8
  %21 = getelementptr inbounds nuw %struct.spawn_resp, ptr %20, i32 0, i32 2
  %22 = load ptr, ptr %21, align 8
  %23 = icmp ne ptr %22, null
  br i1 %23, label %24, label %31

24:                                               ; preds = %19
  %25 = load ptr, ptr %3, align 8
  %26 = getelementptr inbounds nuw %struct.spawn_resp, ptr %25, i32 0, i32 2
  %27 = load ptr, ptr %26, align 8
  %28 = call i64 @strlen(ptr noundef %27) #8
  %29 = trunc i64 %28 to i32
  %30 = add i32 %29, 1
  store i32 %30, ptr %6, align 4
  br label %31

31:                                               ; preds = %24, %19
  %32 = load ptr, ptr %3, align 8
  %33 = getelementptr inbounds nuw %struct.spawn_resp, ptr %32, i32 0, i32 2
  %34 = load ptr, ptr %33, align 8
  %35 = load i32, ptr %6, align 4
  %36 = load ptr, ptr %4, align 8
  call void @slurm_packmem(ptr noundef %34, i32 noundef %35, ptr noundef %36)
  call void @llvm.lifetime.end.p0(i64 4, ptr %6) #7
  br label %37

37:                                               ; preds = %31
  br label %38

38:                                               ; preds = %37
  %39 = load ptr, ptr %3, align 8
  %40 = getelementptr inbounds nuw %struct.spawn_resp, ptr %39, i32 0, i32 4
  %41 = load i32, ptr %40, align 4
  %42 = load ptr, ptr %4, align 8
  call void @slurm_pack32(i32 noundef %41, ptr noundef %42)
  store i32 0, ptr %5, align 4
  br label %43

43:                                               ; preds = %58, %38
  %44 = load i32, ptr %5, align 4
  %45 = load ptr, ptr %3, align 8
  %46 = getelementptr inbounds nuw %struct.spawn_resp, ptr %45, i32 0, i32 4
  %47 = load i32, ptr %46, align 4
  %48 = icmp ult i32 %44, %47
  br i1 %48, label %49, label %61

49:                                               ; preds = %43
  %50 = load ptr, ptr %3, align 8
  %51 = getelementptr inbounds nuw %struct.spawn_resp, ptr %50, i32 0, i32 5
  %52 = load ptr, ptr %51, align 8
  %53 = load i32, ptr %5, align 4
  %54 = sext i32 %53 to i64
  %55 = getelementptr inbounds i32, ptr %52, i64 %54
  %56 = load i32, ptr %55, align 4
  %57 = load ptr, ptr %4, align 8
  call void @slurm_pack32(i32 noundef %56, ptr noundef %57)
  br label %58

58:                                               ; preds = %49
  %59 = load i32, ptr %5, align 4
  %60 = add nsw i32 %59, 1
  store i32 %60, ptr %5, align 4
  br label %43, !llvm.loop !25

61:                                               ; preds = %43
  call void @llvm.lifetime.end.p0(i64 4, ptr %5) #7
  ret void
}