; Function Attrs: nounwind uwtable
define dso_local void @spawn_resp_pack(ptr noundef readonly captures(none) %0, ptr noundef %1) local_unnamed_addr #0 {
  %3 = load i32, ptr %0, align 8
  tail call void @slurm_pack32(i32 noundef %3, ptr noundef %1) #10
  %4 = getelementptr inbounds nuw i8, ptr %0, i64 4
  %5 = load i32, ptr %4, align 4
  tail call void @slurm_pack32(i32 noundef %5, ptr noundef %1) #10
  %6 = getelementptr inbounds nuw i8, ptr %0, i64 16
  %7 = load i16, ptr %6, align 8
  tail call void @slurm_pack16(i16 noundef zeroext %7, ptr noundef %1) #10
  %8 = getelementptr inbounds nuw i8, ptr %0, i64 8
  %9 = load ptr, ptr %8, align 8
  %.not = icmp eq ptr %9, null
  br i1 %.not, label %14, label %10

10:                                               ; preds = %2
  %11 = tail call i64 @strlen(ptr noundef nonnull dereferenceable(1) %9) #11
  %12 = trunc i64 %11 to i32
  %13 = add i32 %12, 1
  br label %14

14:                                               ; preds = %10, %2
  %.0 = phi i32 [ %13, %10 ], [ 0, %2 ]
  tail call void @slurm_packmem(ptr noundef %9, i32 noundef %.0, ptr noundef %1) #10
  %15 = getelementptr inbounds nuw i8, ptr %0, i64 20
  %16 = load i32, ptr %15, align 4
  tail call void @slurm_pack32(i32 noundef %16, ptr noundef %1) #10
  %17 = load i32, ptr %15, align 4
  %.not21 = icmp eq i32 %17, 0
  br i1 %.not21, label %._crit_edge, label %.lr.ph

.lr.ph:                                           ; preds = %14
  %18 = getelementptr inbounds nuw i8, ptr %0, i64 24
  br label %19

19:                                               ; preds = %.lr.ph, %19
  %indvars.iv = phi i64 [ 0, %.lr.ph ], [ %indvars.iv.next, %19 ]
  %20 = load ptr, ptr %18, align 8
  %21 = getelementptr inbounds nuw i32, ptr %20, i64 %indvars.iv
  %22 = load i32, ptr %21, align 4
  tail call void @slurm_pack32(i32 noundef %22, ptr noundef %1) #10
  %indvars.iv.next = add nuw nsw i64 %indvars.iv, 1
  %23 = load i32, ptr %15, align 4
  %24 = zext i32 %23 to i64
  %25 = icmp samesign ult i64 %indvars.iv.next, %24
  br i1 %25, label %19, label %._crit_edge, !llvm.loop !25

._crit_edge:                                      ; preds = %19, %14
  ret void
}